; Function Attrs: mustprogress uwtable
define void @_ZN6google8protobuf9EnumValue5ClearEv(ptr noundef nonnull align 8 dereferenceable(56) %this) unnamed_addr #3 align 2 personality ptr @__gxx_personality_v0 {
entry:
  %current_size_.i.i = getelementptr inbounds i8, ptr %this, i64 24
  %0 = load i32, ptr %current_size_.i.i, align 8
  %cmp.i.i = icmp sgt i32 %0, 0
  br i1 %cmp.i.i, label %if.then.i.i, label %_ZN6google8protobuf16RepeatedPtrFieldINS0_6OptionEE5ClearEv.exit

if.then.i.i:                                      ; preds = %entry
  %1 = getelementptr inbounds i8, ptr %this, i64 16
  %2 = load ptr, ptr %1, align 8
  %3 = ptrtoint ptr %2 to i64
  %and.i.i.i.i.i = and i64 %3, 1
  %cmp.i.i.i.i.i = icmp eq i64 %and.i.i.i.i.i, 0
  %sub.i.i.i.i.i = add i64 %3, -1
  %4 = inttoptr i64 %sub.i.i.i.i.i to ptr
  %elements.i.i.i.i = getelementptr inbounds i8, ptr %4, i64 8
  %cond.i.i.i.i = select i1 %cmp.i.i.i.i.i, ptr %1, ptr %elements.i.i.i.i
  %wide.trip.count.i.i.i = zext nneg i32 %0 to i64
  br label %do.body.i.i.i

do.body.i.i.i:                                    ; preds = %do.body.i.i.i, %if.then.i.i
  %indvars.iv.i.i.i = phi i64 [ %indvars.iv.next.i.i.i, %do.body.i.i.i ], [ 0, %if.then.i.i ]
  %indvars.iv.next.i.i.i = add nuw nsw i64 %indvars.iv.i.i.i, 1
  %arrayidx.i.i.i = getelementptr inbounds ptr, ptr %cond.i.i.i.i, i64 %indvars.iv.i.i.i
  %5 = load ptr, ptr %arrayidx.i.i.i, align 8
  %vtable.i.i.i.i = load ptr, ptr %5, align 8
  %vfn.i.i.i.i = getelementptr inbounds i8, ptr %vtable.i.i.i.i, i64 24
  %6 = load ptr, ptr %vfn.i.i.i.i, align 8
  tail call void %6(ptr noundef nonnull align 8 dereferenceable(16) %5)
  %exitcond.not.i.i.i = icmp eq i64 %indvars.iv.next.i.i.i, %wide.trip.count.i.i.i
  br i1 %exitcond.not.i.i.i, label %_ZN6google8protobuf8internal20RepeatedPtrFieldBase13ClearNonEmptyINS1_18GenericTypeHandlerINS0_11MessageLiteEEEEEvv.exit.i.i, label %do.body.i.i.i, !llvm.loop !4

_ZN6google8protobuf8internal20RepeatedPtrFieldBase13ClearNonEmptyINS1_18GenericTypeHandlerINS0_11MessageLiteEEEEEvv.exit.i.i: ; preds = %do.body.i.i.i
  store i32 0, ptr %current_size_.i.i, align 8
  br label %_ZN6google8protobuf16RepeatedPtrFieldINS0_6OptionEE5ClearEv.exit

_ZN6google8protobuf16RepeatedPtrFieldINS0_6OptionEE5ClearEv.exit: ; preds = %entry, %_ZN6google8protobuf8internal20RepeatedPtrFieldBase13ClearNonEmptyINS1_18GenericTypeHandlerINS0_11MessageLiteEEEEEvv.exit.i.i
  %name_ = getelementptr inbounds i8, ptr %this, i64 40
  tail call void @_ZN6google8protobuf8internal14ArenaStringPtr12ClearToEmptyEv(ptr noundef nonnull align 8 dereferenceable(8) %name_)
  %number_ = getelementptr inbounds i8, ptr %this, i64 48
  store i32 0, ptr %number_, align 8
  %_internal_metadata_ = getelementptr inbounds i8, ptr %this, i64 8
  %7 = load i64, ptr %_internal_metadata_, align 8
  %and.i = and i64 %7, 1
  %tobool.i.not = icmp eq i64 %and.i, 0
  br i1 %tobool.i.not, label %_ZN6google8protobuf8internal16InternalMetadata5ClearINS0_15UnknownFieldSetEEEvv.exit, label %if.then.i

if.then.i:                                        ; preds = %_ZN6google8protobuf16RepeatedPtrFieldINS0_6OptionEE5ClearEv.exit
  tail call void @_ZN6google8protobuf8internal16InternalMetadata7DoClearINS0_15UnknownFieldSetEEEvv(ptr noundef nonnull align 8 dereferenceable(8) %_internal_metadata_)
  br label %_ZN6google8protobuf8internal16InternalMetadata5ClearINS0_15UnknownFieldSetEEEvv.exit

_ZN6google8protobuf8internal16InternalMetadata5ClearINS0_15UnknownFieldSetEEEvv.exit: ; preds = %if.then.i, %_ZN6google8protobuf16RepeatedPtrFieldINS0_6OptionEE5ClearEv.exit
  ret void
}